; Function Attrs: mustprogress nounwind uwtable
define dso_local noundef nonnull align 8 dereferenceable(8) ptr @_ZN16cmUVProcessChainaSEOS_(ptr noundef nonnull returned align 8 dereferenceable(8) %0, ptr noundef nonnull align 8 captures(none) dereferenceable(8) %1) local_unnamed_addr #0 align 2 personality ptr @__gxx_personality_v0 {
  %3 = load ptr, ptr %1, align 8
  store ptr null, ptr %1, align 8
  %4 = load ptr, ptr %0, align 8
  store ptr %3, ptr %0, align 8
  %.not.i.i.i.i = icmp eq ptr %4, null
  br i1 %.not.i.i.i.i, label %_ZNSt10unique_ptrIN16cmUVProcessChain12InternalDataESt14default_deleteIS1_EEaSEOS4_.exit, label %_ZNKSt14default_deleteIN16cmUVProcessChain12InternalDataEEclEPS1_.exit.i.i.i.i

_ZNKSt14default_deleteIN16cmUVProcessChain12InternalDataEEclEPS1_.exit.i.i.i.i: ; preds = %2
  tail call void @_ZN16cmUVProcessChain12InternalDataD2Ev(ptr noundef nonnull align 8 dereferenceable(176) %4) #22
  tail call void @_ZdlPv(ptr noundef nonnull %4) #23
  br label %_ZNSt10unique_ptrIN16cmUVProcessChain12InternalDataESt14default_deleteIS1_EEaSEOS4_.exit

_ZNSt10unique_ptrIN16cmUVProcessChain12InternalDataESt14default_deleteIS1_EEaSEOS4_.exit: ; preds = %2, %_ZNKSt14default_deleteIN16cmUVProcessChain12InternalDataEEclEPS1_.exit.i.i.i.i
  ret ptr %0
}